target datalayout = "e-m:e-p270:32:32-p271:32:32-p272:64:64-i64:64-i128:128-f80:128-n8:16:32:64-S128"
target triple = "x86_64-pc-linux-gnu"

@sao_edge_filter_10.edge_idx = internal constant [5 x i8] c"\01\02\00\03\04", align 1

; Function Attrs: alwaysinline nounwind willreturn memory(none) uwtable
define internal i32 @av_clip_uintp2_c(i32 noundef %0, i32 noundef %1) #3 {
  %3 = alloca i32, align 4
  %4 = alloca i32, align 4
  %5 = alloca i32, align 4
  store i32 %0, ptr %4, align 4, !tbaa !9
  store i32 %1, ptr %5, align 4, !tbaa !9
  %6 = load i32, ptr %4, align 4, !tbaa !9
  %7 = load i32, ptr %5, align 4, !tbaa !9
  %8 = shl i32 1, %7
  %9 = sub i32 %8, 1
  %10 = xor i32 %9, -1
  %11 = and i32 %6, %10
  %12 = icmp ne i32 %11, 0
  br i1 %12, label %13, label %21

13:                                               ; preds = %2
  %14 = load i32, ptr %4, align 4, !tbaa !9
  %15 = xor i32 %14, -1
  %16 = ashr i32 %15, 31
  %17 = load i32, ptr %5, align 4, !tbaa !9
  %18 = shl i32 1, %17
  %19 = sub i32 %18, 1
  %20 = and i32 %16, %19
  store i32 %20, ptr %3, align 4
  br label %23

21:                                               ; preds = %2
  %22 = load i32, ptr %4, align 4, !tbaa !9
  store i32 %22, ptr %3, align 4
  br label %23

23:                                               ; preds = %21, %13
  %24 = load i32, ptr %3, align 4
  ret i32 %24
}

; Function Attrs: nounwind uwtable
define internal void @sao_edge_filter_10(ptr noundef %0, ptr noundef %1, i64 noundef %2, ptr noundef %3, i32 noundef %4, i32 noundef %5, i32 noundef %6) #0 {
  %8 = alloca ptr, align 8
  %9 = alloca ptr, align 8
  %10 = alloca i64, align 8
  %11 = alloca ptr, align 8
  %12 = alloca i32, align 4
  %13 = alloca i32, align 4
  %14 = alloca i32, align 4
  %15 = alloca ptr, align 8
  %16 = alloca ptr, align 8
  %17 = alloca i32, align 4
  %18 = alloca i32, align 4
  %19 = alloca i32, align 4
  %20 = alloca i32, align 4
  %21 = alloca i64, align 8
  %22 = alloca i32, align 4
  %23 = alloca i32, align 4
  %24 = alloca i32, align 4
  store ptr %0, ptr %8, align 8, !tbaa !144
  store ptr %1, ptr %9, align 8, !tbaa !144
  store i64 %2, ptr %10, align 8, !tbaa !146
  store ptr %3, ptr %11, align 8, !tbaa !142
  store i32 %4, ptr %12, align 4, !tbaa !9
  store i32 %5, ptr %13, align 4, !tbaa !9
  store i32 %6, ptr %14, align 4, !tbaa !9
  call void @llvm.lifetime.start.p0(i64 8, ptr %15) #8
  %25 = load ptr, ptr %8, align 8, !tbaa !144
  store ptr %25, ptr %15, align 8, !tbaa !142
  call void @llvm.lifetime.start.p0(i64 8, ptr %16) #8
  %26 = load ptr, ptr %9, align 8, !tbaa !144
  store ptr %26, ptr %16, align 8, !tbaa !142
  call void @llvm.lifetime.start.p0(i64 4, ptr %17) #8
  call void @llvm.lifetime.start.p0(i64 4, ptr %18) #8
  call void @llvm.lifetime.start.p0(i64 4, ptr %19) #8
  call void @llvm.lifetime.start.p0(i64 4, ptr %20) #8
  call void @llvm.lifetime.start.p0(i64 8, ptr %21) #8
  store i64 160, ptr %21, align 8, !tbaa !146
  %27 = load i64, ptr %10, align 8, !tbaa !146
  %28 = udiv i64 %27, 2
  store i64 %28, ptr %10, align 8, !tbaa !146
  %29 = load i32, ptr %12, align 4, !tbaa !9
  %30 = sext i32 %29 to i64
  %31 = getelementptr inbounds [4 x [2 x [2 x i8]]], ptr @sao_edge_filter_10.pos, i64 0, i64 %30
  %32 = getelementptr inbounds [2 x [2 x i8]], ptr %31, i64 0, i64 0
  %33 = getelementptr inbounds [2 x i8], ptr %32, i64 0, i64 0
  %34 = load i8, ptr %33, align 4, !tbaa !152
  %35 = sext i8 %34 to i64
  %36 = load i32, ptr %12, align 4, !tbaa !9
  %37 = sext i32 %36 to i64
  %38 = getelementptr inbounds [4 x [2 x [2 x i8]]], ptr @sao_edge_filter_10.pos, i64 0, i64 %37
  %39 = getelementptr inbounds [2 x [2 x i8]], ptr %38, i64 0, i64 0
  %40 = getelementptr inbounds [2 x i8], ptr %39, i64 0, i64 1
  %41 = load i8, ptr %40, align 1, !tbaa !152
  %42 = sext i8 %41 to i64
  %43 = load i64, ptr %21, align 8, !tbaa !146
  %44 = mul nsw i64 %42, %43
  %45 = add nsw i64 %35, %44
  %46 = trunc i64 %45 to i32
  store i32 %46, ptr %17, align 4, !tbaa !9
  %47 = load i32, ptr %12, align 4, !tbaa !9
  %48 = sext i32 %47 to i64
  %49 = getelementptr inbounds [4 x [2 x [2 x i8]]], ptr @sao_edge_filter_10.pos, i64 0, i64 %48
  %50 = getelementptr inbounds [2 x [2 x i8]], ptr %49, i64 0, i64 1
  %51 = getelementptr inbounds [2 x i8], ptr %50, i64 0, i64 0
  %52 = load i8, ptr %51, align 2, !tbaa !152
  %53 = sext i8 %52 to i64
  %54 = load i32, ptr %12, align 4, !tbaa !9
  %55 = sext i32 %54 to i64
  %56 = getelementptr inbounds [4 x [2 x [2 x i8]]], ptr @sao_edge_filter_10.pos, i64 0, i64 %55
  %57 = getelementptr inbounds [2 x [2 x i8]], ptr %56, i64 0, i64 1
  %58 = getelementptr inbounds [2 x i8], ptr %57, i64 0, i64 1
  %59 = load i8, ptr %58, align 1, !tbaa !152
  %60 = sext i8 %59 to i64
  %61 = load i64, ptr %21, align 8, !tbaa !146
  %62 = mul nsw i64 %60, %61
  %63 = add nsw i64 %53, %62
  %64 = trunc i64 %63 to i32
  store i32 %64, ptr %18, align 4, !tbaa !9
  store i32 0, ptr %20, align 4, !tbaa !9
  br label %65

65:                                               ; preds = %178, %7
  %66 = load i32, ptr %20, align 4, !tbaa !9
  %67 = load i32, ptr %14, align 4, !tbaa !9
  %68 = icmp slt i32 %66, %67
  br i1 %68, label %69, label %181

69:                                               ; preds = %65
  store i32 0, ptr %19, align 4, !tbaa !9
  br label %70

70:                                               ; preds = %168, %69
  %71 = load i32, ptr %19, align 4, !tbaa !9
  %72 = load i32, ptr %13, align 4, !tbaa !9
  %73 = icmp slt i32 %71, %72
  br i1 %73, label %74, label %171

74:                                               ; preds = %70
  call void @llvm.lifetime.start.p0(i64 4, ptr %22) #8
  %75 = load ptr, ptr %16, align 8, !tbaa !142
  %76 = load i32, ptr %19, align 4, !tbaa !9
  %77 = sext i32 %76 to i64
  %78 = getelementptr inbounds i16, ptr %75, i64 %77
  %79 = load i16, ptr %78, align 2, !tbaa !148
  %80 = zext i16 %79 to i32
  %81 = load ptr, ptr %16, align 8, !tbaa !142
  %82 = load i32, ptr %19, align 4, !tbaa !9
  %83 = load i32, ptr %17, align 4, !tbaa !9
  %84 = add nsw i32 %82, %83
  %85 = sext i32 %84 to i64
  %86 = getelementptr inbounds i16, ptr %81, i64 %85
  %87 = load i16, ptr %86, align 2, !tbaa !148
  %88 = zext i16 %87 to i32
  %89 = icmp sgt i32 %80, %88
  %90 = zext i1 %89 to i32
  %91 = load ptr, ptr %16, align 8, !tbaa !142
  %92 = load i32, ptr %19, align 4, !tbaa !9
  %93 = sext i32 %92 to i64
  %94 = getelementptr inbounds i16, ptr %91, i64 %93
  %95 = load i16, ptr %94, align 2, !tbaa !148
  %96 = zext i16 %95 to i32
  %97 = load ptr, ptr %16, align 8, !tbaa !142
  %98 = load i32, ptr %19, align 4, !tbaa !9
  %99 = load i32, ptr %17, align 4, !tbaa !9
  %100 = add nsw i32 %98, %99
  %101 = sext i32 %100 to i64
  %102 = getelementptr inbounds i16, ptr %97, i64 %101
  %103 = load i16, ptr %102, align 2, !tbaa !148
  %104 = zext i16 %103 to i32
  %105 = icmp slt i32 %96, %104
  %106 = zext i1 %105 to i32
  %107 = sub nsw i32 %90, %106
  store i32 %107, ptr %22, align 4, !tbaa !9
  call void @llvm.lifetime.start.p0(i64 4, ptr %23) #8
  %108 = load ptr, ptr %16, align 8, !tbaa !142
  %109 = load i32, ptr %19, align 4, !tbaa !9
  %110 = sext i32 %109 to i64
  %111 = getelementptr inbounds i16, ptr %108, i64 %110
  %112 = load i16, ptr %111, align 2, !tbaa !148
  %113 = zext i16 %112 to i32
  %114 = load ptr, ptr %16, align 8, !tbaa !142
  %115 = load i32, ptr %19, align 4, !tbaa !9
  %116 = load i32, ptr %18, align 4, !tbaa !9
  %117 = add nsw i32 %115, %116
  %118 = sext i32 %117 to i64
  %119 = getelementptr inbounds i16, ptr %114, i64 %118
  %120 = load i16, ptr %119, align 2, !tbaa !148
  %121 = zext i16 %120 to i32
  %122 = icmp sgt i32 %113, %121
  %123 = zext i1 %122 to i32
  %124 = load ptr, ptr %16, align 8, !tbaa !142
  %125 = load i32, ptr %19, align 4, !tbaa !9
  %126 = sext i32 %125 to i64
  %127 = getelementptr inbounds i16, ptr %124, i64 %126
  %128 = load i16, ptr %127, align 2, !tbaa !148
  %129 = zext i16 %128 to i32
  %130 = load ptr, ptr %16, align 8, !tbaa !142
  %131 = load i32, ptr %19, align 4, !tbaa !9
  %132 = load i32, ptr %18, align 4, !tbaa !9
  %133 = add nsw i32 %131, %132
  %134 = sext i32 %133 to i64
  %135 = getelementptr inbounds i16, ptr %130, i64 %134
  %136 = load i16, ptr %135, align 2, !tbaa !148
  %137 = zext i16 %136 to i32
  %138 = icmp slt i32 %129, %137
  %139 = zext i1 %138 to i32
  %140 = sub nsw i32 %123, %139
  store i32 %140, ptr %23, align 4, !tbaa !9
  call void @llvm.lifetime.start.p0(i64 4, ptr %24) #8
  %141 = load i32, ptr %22, align 4, !tbaa !9
  %142 = add nsw i32 2, %141
  %143 = load i32, ptr %23, align 4, !tbaa !9
  %144 = add nsw i32 %142, %143
  %145 = sext i32 %144 to i64
  %146 = getelementptr inbounds [5 x i8], ptr @sao_edge_filter_10.edge_idx, i64 0, i64 %145
  %147 = load i8, ptr %146, align 1, !tbaa !152
  %148 = zext i8 %147 to i32
  store i32 %148, ptr %24, align 4, !tbaa !9
  %149 = load ptr, ptr %16, align 8, !tbaa !142
  %150 = load i32, ptr %19, align 4, !tbaa !9
  %151 = sext i32 %150 to i64
  %152 = getelementptr inbounds i16, ptr %149, i64 %151
  %153 = load i16, ptr %152, align 2, !tbaa !148
  %154 = zext i16 %153 to i32
  %155 = load ptr, ptr %11, align 8, !tbaa !142
  %156 = load i32, ptr %24, align 4, !tbaa !9
  %157 = sext i32 %156 to i64
  %158 = getelementptr inbounds i16, ptr %155, i64 %157
  %159 = load i16, ptr %158, align 2, !tbaa !148
  %160 = sext i16 %159 to i32
  %161 = add nsw i32 %154, %160
  %162 = call i32 @av_clip_uintp2_c(i32 noundef %161, i32 noundef 10) #9
  %163 = trunc i32 %162 to i16
  %164 = load ptr, ptr %15, align 8, !tbaa !142
  %165 = load i32, ptr %19, align 4, !tbaa !9
  %166 = sext i32 %165 to i64
  %167 = getelementptr inbounds i16, ptr %164, i64 %166
  store i16 %163, ptr %167, align 2, !tbaa !148
  call void @llvm.lifetime.end.p0(i64 4, ptr %24) #8
  call void @llvm.lifetime.end.p0(i64 4, ptr %23) #8
  call void @llvm.lifetime.end.p0(i64 4, ptr %22) #8
  br label %168

168:                                              ; preds = %74
  %169 = load i32, ptr %19, align 4, !tbaa !9
  %170 = add nsw i32 %169, 1
  store i32 %170, ptr %19, align 4, !tbaa !9
  br label %70, !llvm.loop !658

171:                                              ; preds = %70
  %172 = load i64, ptr %21, align 8, !tbaa !146
  %173 = load ptr, ptr %16, align 8, !tbaa !142
  %174 = getelementptr inbounds i16, ptr %173, i64 %172
  store ptr %174, ptr %16, align 8, !tbaa !142
  %175 = load i64, ptr %10, align 8, !tbaa !146
  %176 = load ptr, ptr %15, align 8, !tbaa !142
  %177 = getelementptr inbounds i16, ptr %176, i64 %175
  store ptr %177, ptr %15, align 8, !tbaa !142
  br label %178

178:                                              ; preds = %171
  %179 = load i32, ptr %20, align 4, !tbaa !9
  %180 = add nsw i32 %179, 1
  store i32 %180, ptr %20, align 4, !tbaa !9
  br label %65, !llvm.loop !659

181:                                              ; preds = %65
  call void @llvm.lifetime.end.p0(i64 8, ptr %21) #8
  call void @llvm.lifetime.end.p0(i64 4, ptr %20) #8
  call void @llvm.lifetime.end.p0(i64 4, ptr %19) #8
  call void @llvm.lifetime.end.p0(i64 4, ptr %18) #8
  call void @llvm.lifetime.end.p0(i64 4, ptr %17) #8
  call void @llvm.lifetime.end.p0(i64 8, ptr %16) #8
  call void @llvm.lifetime.end.p0(i64 8, ptr %15) #8
  ret void
}