; Function Attrs: nofree norecurse nosync nounwind memory(argmem: readwrite) uwtable
define internal void @sao_edge_filter_10(ptr noundef writeonly captures(none) %0, ptr noundef readonly captures(none) %1, i64 noundef %2, ptr noundef readonly captures(none) %3, i32 noundef %4, i32 noundef %5, i32 noundef %6) #2 {
  %8 = lshr i64 %2, 1
  %9 = sext i32 %4 to i64
  %10 = getelementptr inbounds [4 x [2 x [2 x i8]]], ptr @sao_edge_filter_8.pos, i64 0, i64 %9
  %11 = load i8, ptr %10, align 4, !tbaa !128
  %12 = sext i8 %11 to i64
  %13 = getelementptr inbounds nuw i8, ptr %10, i64 2
  %14 = load i8, ptr %13, align 2, !tbaa !128
  %15 = sext i8 %14 to i64
  %16 = icmp sgt i32 %6, 0
  %17 = icmp sgt i32 %5, 0
  %or.cond = and i1 %16, %17
  br i1 %or.cond, label %.preheader.us.preheader, label %._crit_edge53

.preheader.us.preheader:                          ; preds = %7
  %18 = getelementptr inbounds nuw i8, ptr %10, i64 3
  %19 = load i8, ptr %18, align 1, !tbaa !128
  %20 = sext i8 %19 to i64
  %21 = getelementptr inbounds nuw i8, ptr %10, i64 1
  %22 = load i8, ptr %21, align 1, !tbaa !128
  %23 = sext i8 %22 to i64
  %wide.trip.count = zext nneg i32 %5 to i64
  %.idx = mul nsw i64 %23, 320
  %.idx57 = mul nsw i64 %20, 320
  br label %.preheader.us

.preheader.us:                                    ; preds = %.preheader.us.preheader, %._crit_edge.us
  %.052.us = phi ptr [ %53, %._crit_edge.us ], [ %0, %.preheader.us.preheader ]
  %.04651.us = phi ptr [ %52, %._crit_edge.us ], [ %1, %.preheader.us.preheader ]
  %.04850.us = phi i32 [ %54, %._crit_edge.us ], [ 0, %.preheader.us.preheader ]
  %24 = getelementptr i8, ptr %.04651.us, i64 %.idx
  %25 = getelementptr i16, ptr %24, i64 %12
  %26 = getelementptr i8, ptr %.04651.us, i64 %.idx57
  %27 = getelementptr i16, ptr %26, i64 %15
  br label %28

28:                                               ; preds = %.preheader.us, %28
  %indvars.iv = phi i64 [ 0, %.preheader.us ], [ %indvars.iv.next, %28 ]
  %29 = getelementptr inbounds nuw i16, ptr %.04651.us, i64 %indvars.iv
  %30 = load i16, ptr %29, align 2, !tbaa !124
  %31 = zext i16 %30 to i32
  %32 = getelementptr i16, ptr %25, i64 %indvars.iv
  %33 = load i16, ptr %32, align 2, !tbaa !124
  %34 = tail call i32 @llvm.ucmp.i32.i16(i16 %30, i16 %33)
  %35 = getelementptr i16, ptr %27, i64 %indvars.iv
  %36 = load i16, ptr %35, align 2, !tbaa !124
  %37 = tail call i32 @llvm.ucmp.i32.i16(i16 %30, i16 %36)
  %38 = add nsw i32 %34, 2
  %39 = add nsw i32 %38, %37
  %40 = zext nneg i32 %39 to i64
  %41 = getelementptr inbounds nuw [5 x i8], ptr @sao_edge_filter_8.edge_idx, i64 0, i64 %40
  %42 = load i8, ptr %41, align 1, !tbaa !128
  %43 = zext i8 %42 to i64
  %44 = getelementptr inbounds nuw i16, ptr %3, i64 %43
  %45 = load i16, ptr %44, align 2, !tbaa !124
  %46 = sext i16 %45 to i32
  %47 = add nsw i32 %46, %31
  %48 = tail call i32 @llvm.smax.i32(i32 %47, i32 0)
  %49 = tail call i32 @llvm.umin.i32(i32 %48, i32 1023)
  %50 = trunc nuw nsw i32 %49 to i16
  %51 = getelementptr inbounds nuw i16, ptr %.052.us, i64 %indvars.iv
  store i16 %50, ptr %51, align 2, !tbaa !124
  %indvars.iv.next = add nuw nsw i64 %indvars.iv, 1
  %exitcond.not = icmp eq i64 %indvars.iv.next, %wide.trip.count
  br i1 %exitcond.not, label %._crit_edge.us, label %28, !llvm.loop !621

._crit_edge.us:                                   ; preds = %28
  %52 = getelementptr inbounds nuw i8, ptr %.04651.us, i64 320
  %53 = getelementptr inbounds nuw i16, ptr %.052.us, i64 %8
  %54 = add nuw nsw i32 %.04850.us, 1
  %exitcond56.not = icmp eq i32 %54, %6
  br i1 %exitcond56.not, label %._crit_edge53, label %.preheader.us, !llvm.loop !622

._crit_edge53:                                    ; preds = %._crit_edge.us, %7
  ret void
}